; Function Attrs: mustprogress nofree norecurse nosync nounwind memory(argmem: readwrite) uwtable
define void @_ZN2cv3hal19warpAffineBlocklineEPiS1_PsS2_iii(ptr noundef readonly captures(none) %0, ptr noundef readonly captures(none) %1, ptr noundef writeonly captures(none) %2, ptr noundef writeonly captures(none) %3, i32 noundef %4, i32 noundef %5, i32 noundef %6) local_unnamed_addr #9 personality ptr @__gxx_personality_v0 {
  %8 = icmp sgt i32 %6, 0
  br i1 %8, label %.lr.ph.preheader, label %._crit_edge

.lr.ph.preheader:                                 ; preds = %7
  %wide.trip.count = zext nneg i32 %6 to i64
  br label %.lr.ph

.lr.ph:                                           ; preds = %.lr.ph.preheader, %.lr.ph
  %indvars.iv = phi i64 [ 0, %.lr.ph.preheader ], [ %indvars.iv.next, %.lr.ph ]
  %9 = getelementptr inbounds nuw i32, ptr %0, i64 %indvars.iv
  %10 = load i32, ptr %9, align 4, !tbaa !28
  %11 = add nsw i32 %10, %4
  %12 = lshr i32 %11, 5
  %13 = getelementptr inbounds nuw i32, ptr %1, i64 %indvars.iv
  %14 = load i32, ptr %13, align 4, !tbaa !28
  %15 = add nsw i32 %14, %5
  %16 = ashr i32 %11, 10
  %17 = tail call i32 @llvm.smax.i32(i32 %16, i32 -32768)
  %18 = tail call i32 @llvm.smin.i32(i32 %17, i32 32767)
  %19 = trunc nsw i32 %18 to i16
  %20 = shl nuw nsw i64 %indvars.iv, 1
  %21 = getelementptr inbounds nuw i16, ptr %2, i64 %20
  store i16 %19, ptr %21, align 2, !tbaa !72
  %22 = ashr i32 %15, 10
  %23 = tail call i32 @llvm.smax.i32(i32 %22, i32 -32768)
  %24 = tail call i32 @llvm.smin.i32(i32 %23, i32 32767)
  %25 = trunc nsw i32 %24 to i16
  %26 = or disjoint i64 %20, 1
  %27 = getelementptr inbounds nuw i16, ptr %2, i64 %26
  store i16 %25, ptr %27, align 2, !tbaa !72
  %28 = and i32 %15, 992
  %29 = and i32 %12, 31
  %30 = or disjoint i32 %28, %29
  %31 = trunc nuw nsw i32 %30 to i16
  %32 = getelementptr inbounds nuw i16, ptr %3, i64 %indvars.iv
  store i16 %31, ptr %32, align 2, !tbaa !72
  %indvars.iv.next = add nuw nsw i64 %indvars.iv, 1
  %exitcond.not = icmp eq i64 %indvars.iv.next, %wide.trip.count
  br i1 %exitcond.not, label %._crit_edge, label %.lr.ph, !llvm.loop !512

._crit_edge:                                      ; preds = %.lr.ph, %7
  ret void
}